; Function Attrs: nounwind uwtable
define internal range(i32 -1, 1) i32 @np_void_p(ptr noundef readonly captures(none) %0, ptr noundef writeonly captures(none) %1, ptr noundef %2, ptr readnone captures(none) %3) #0 {
  %5 = getelementptr i8, ptr %2, i64 8
  %.val.i = load ptr, ptr %5, align 8, !tbaa !24
  %6 = getelementptr i8, ptr %.val.i, i64 168
  %.val11.i = load i64, ptr %6, align 8, !tbaa !51
  %7 = and i64 %.val11.i, 16777216
  %.not.i8 = icmp eq i64 %7, 0
  br i1 %.not.i8, label %8, label %12

8:                                                ; preds = %4
  %9 = tail call i32 @PyIndex_Check(ptr noundef nonnull %2) #7
  %.not10.i = icmp eq i32 %9, 0
  br i1 %.not10.i, label %get_pylong.exit.thread11, label %get_pylong.exit

get_pylong.exit.thread11:                         ; preds = %8
  %10 = getelementptr inbounds nuw i8, ptr %0, i64 24
  %11 = load ptr, ptr %10, align 8, !tbaa !16
  tail call void @PyErr_SetString(ptr noundef %11, ptr noundef nonnull @.str.50) #7
  br label %29

12:                                               ; preds = %4
  %13 = load i32, ptr %2, align 8, !tbaa !18
  %14 = icmp slt i32 %13, 0
  br i1 %14, label %get_pylong.exit.thread, label %15

15:                                               ; preds = %12
  %16 = add nuw i32 %13, 1
  store i32 %16, ptr %2, align 8, !tbaa !18
  br label %get_pylong.exit.thread

get_pylong.exit:                                  ; preds = %8
  %17 = tail call ptr @_PyNumber_Index(ptr noundef nonnull %2) #7
  %18 = icmp eq ptr %17, null
  br i1 %18, label %29, label %get_pylong.exit.thread

get_pylong.exit.thread:                           ; preds = %15, %12, %get_pylong.exit
  %.08.i10 = phi ptr [ %17, %get_pylong.exit ], [ %2, %12 ], [ %2, %15 ]
  %19 = tail call ptr @PyLong_AsVoidPtr(ptr noundef nonnull %.08.i10) #7
  %20 = load i32, ptr %.08.i10, align 8, !tbaa !18
  %.not.i = icmp sgt i32 %20, -1
  br i1 %.not.i, label %21, label %Py_DECREF.exit

21:                                               ; preds = %get_pylong.exit.thread
  %22 = add nsw i32 %20, -1
  store i32 %22, ptr %.08.i10, align 8, !tbaa !18
  %23 = icmp eq i32 %22, 0
  br i1 %23, label %24, label %Py_DECREF.exit

24:                                               ; preds = %21
  tail call void @_Py_Dealloc(ptr noundef nonnull %.08.i10) #7
  br label %Py_DECREF.exit

Py_DECREF.exit:                                   ; preds = %get_pylong.exit.thread, %21, %24
  %25 = icmp eq ptr %19, null
  br i1 %25, label %26, label %28

26:                                               ; preds = %Py_DECREF.exit
  %27 = tail call ptr @PyErr_Occurred() #7
  %.not = icmp eq ptr %27, null
  br i1 %.not, label %28, label %29

28:                                               ; preds = %26, %Py_DECREF.exit
  store ptr %19, ptr %1, align 1
  br label %29

29:                                               ; preds = %get_pylong.exit.thread11, %26, %get_pylong.exit, %28
  %.0 = phi i32 [ 0, %28 ], [ -1, %get_pylong.exit ], [ -1, %26 ], [ -1, %get_pylong.exit.thread11 ]
  ret i32 %.0
}